; ModuleID = '14/273.c'
source_filename = "14/273.c"
target datalayout = "e-m:e-p270:32:32-p271:32:32-p272:64:64-i64:64-f80:128-n8:16:32:64-S128"
target triple = "x86_64-pc-linux-gnu"

%struct.stu = type { i32, i32, i32, i32 }

@.str = private unnamed_addr constant [3 x i8] c"%d\00", align 1
@.str.1 = private unnamed_addr constant [7 x i8] c"%d%d%d\00", align 1
@stu = common dso_local global [100000 x %struct.stu] zeroinitializer, align 16
@.str.2 = private unnamed_addr constant [7 x i8] c"%d %d\0A\00", align 1

; Function Attrs: noinline nounwind uwtable
define dso_local i32 @main() #0 {
  %1 = alloca i32, align 4
  %2 = alloca i32, align 4
  %3 = alloca i32, align 4
  %4 = alloca i32, align 4
  %5 = alloca i32, align 4
  %6 = alloca i32, align 4
  store i32 0, i32* %1, align 4
  %7 = call i32 (i8*, ...) @__isoc99_scanf(i8* getelementptr inbounds ([3 x i8], [3 x i8]* @.str, i64 0, i64 0), i32* %2)
  store i32 1, i32* %3, align 4
  br label %8

8:                                                ; preds = %41, %0
  %9 = load i32, i32* %3, align 4
  %10 = load i32, i32* %2, align 4
  %11 = icmp sle i32 %9, %10
  br i1 %11, label %12, label %44

12:                                               ; preds = %8
  %13 = load i32, i32* %3, align 4
  %14 = sext i32 %13 to i64
  %15 = getelementptr inbounds [100000 x %struct.stu], [100000 x %struct.stu]* @stu, i64 0, i64 %14
  %16 = getelementptr inbounds %struct.stu, %struct.stu* %15, i32 0, i32 0
  %17 = load i32, i32* %3, align 4
  %18 = sext i32 %17 to i64
  %19 = getelementptr inbounds [100000 x %struct.stu], [100000 x %struct.stu]* @stu, i64 0, i64 %18
  %20 = getelementptr inbounds %struct.stu, %struct.stu* %19, i32 0, i32 1
  %21 = load i32, i32* %3, align 4
  %22 = sext i32 %21 to i64
  %23 = getelementptr inbounds [100000 x %struct.stu], [100000 x %struct.stu]* @stu, i64 0, i64 %22
  %24 = getelementptr inbounds %struct.stu, %struct.stu* %23, i32 0, i32 2
  %25 = call i32 (i8*, ...) @__isoc99_scanf(i8* getelementptr inbounds ([7 x i8], [7 x i8]* @.str.1, i64 0, i64 0), i32* %16, i32* %20, i32* %24)
  %26 = load i32, i32* %3, align 4
  %27 = sext i32 %26 to i64
  %28 = getelementptr inbounds [100000 x %struct.stu], [100000 x %struct.stu]* @stu, i64 0, i64 %27
  %29 = getelementptr inbounds %struct.stu, %struct.stu* %28, i32 0, i32 1
  %30 = load i32, i32* %29, align 4
  %31 = load i32, i32* %3, align 4
  %32 = sext i32 %31 to i64
  %33 = getelementptr inbounds [100000 x %struct.stu], [100000 x %struct.stu]* @stu, i64 0, i64 %32
  %34 = getelementptr inbounds %struct.stu, %struct.stu* %33, i32 0, i32 2
  %35 = load i32, i32* %34, align 8
  %36 = add nsw i32 %30, %35
  %37 = load i32, i32* %3, align 4
  %38 = sext i32 %37 to i64
  %39 = getelementptr inbounds [100000 x %struct.stu], [100000 x %struct.stu]* @stu, i64 0, i64 %38
  %40 = getelementptr inbounds %struct.stu, %struct.stu* %39, i32 0, i32 3
  store i32 %36, i32* %40, align 4
  br label %41

41:                                               ; preds = %12
  %42 = load i32, i32* %3, align 4
  %43 = add nsw i32 %42, 1
  store i32 %43, i32* %3, align 4
  br label %8

44:                                               ; preds = %8
  store i32 1, i32* %4, align 4
  store i32 1, i32* %3, align 4
  br label %45

45:                                               ; preds = %66, %44
  %46 = load i32, i32* %3, align 4
  %47 = load i32, i32* %2, align 4
  %48 = icmp slt i32 %46, %47
  br i1 %48, label %49, label %69

49:                                               ; preds = %45
  %50 = load i32, i32* %4, align 4
  %51 = sext i32 %50 to i64
  %52 = getelementptr inbounds [100000 x %struct.stu], [100000 x %struct.stu]* @stu, i64 0, i64 %51
  %53 = getelementptr inbounds %struct.stu, %struct.stu* %52, i32 0, i32 3
  %54 = load i32, i32* %53, align 4
  %55 = load i32, i32* %3, align 4
  %56 = add nsw i32 %55, 1
  %57 = sext i32 %56 to i64
  %58 = getelementptr inbounds [100000 x %struct.stu], [100000 x %struct.stu]* @stu, i64 0, i64 %57
  %59 = getelementptr inbounds %struct.stu, %struct.stu* %58, i32 0, i32 3
  %60 = load i32, i32* %59, align 4
  %61 = icmp slt i32 %54, %60
  br i1 %61, label %62, label %65

62:                                               ; preds = %49
  %63 = load i32, i32* %3, align 4
  %64 = add nsw i32 %63, 1
  store i32 %64, i32* %4, align 4
  br label %65

65:                                               ; preds = %62, %49
  br label %66

66:                                               ; preds = %65
  %67 = load i32, i32* %3, align 4
  %68 = add nsw i32 %67, 1
  store i32 %68, i32* %3, align 4
  br label %45

69:                                               ; preds = %45
  %70 = load i32, i32* %4, align 4
  %71 = sext i32 %70 to i64
  %72 = getelementptr inbounds [100000 x %struct.stu], [100000 x %struct.stu]* @stu, i64 0, i64 %71
  %73 = getelementptr inbounds %struct.stu, %struct.stu* %72, i32 0, i32 0
  %74 = load i32, i32* %73, align 16
  %75 = load i32, i32* %4, align 4
  %76 = sext i32 %75 to i64
  %77 = getelementptr inbounds [100000 x %struct.stu], [100000 x %struct.stu]* @stu, i64 0, i64 %76
  %78 = getelementptr inbounds %struct.stu, %struct.stu* %77, i32 0, i32 3
  %79 = load i32, i32* %78, align 4
  %80 = call i32 (i8*, ...) @printf(i8* getelementptr inbounds ([7 x i8], [7 x i8]* @.str.2, i64 0, i64 0), i32 %74, i32 %79)
  %81 = load i32, i32* %4, align 4
  %82 = sext i32 %81 to i64
  %83 = getelementptr inbounds [100000 x %struct.stu], [100000 x %struct.stu]* @stu, i64 0, i64 %82
  %84 = getelementptr inbounds %struct.stu, %struct.stu* %83, i32 0, i32 3
  store i32 0, i32* %84, align 4
  store i32 1, i32* %5, align 4
  store i32 1, i32* %3, align 4
  br label %85

85:                                               ; preds = %106, %69
  %86 = load i32, i32* %3, align 4
  %87 = load i32, i32* %2, align 4
  %88 = icmp slt i32 %86, %87
  br i1 %88, label %89, label %109

89:                                               ; preds = %85
  %90 = load i32, i32* %5, align 4
  %91 = sext i32 %90 to i64
  %92 = getelementptr inbounds [100000 x %struct.stu], [100000 x %struct.stu]* @stu, i64 0, i64 %91
  %93 = getelementptr inbounds %struct.stu, %struct.stu* %92, i32 0, i32 3
  %94 = load i32, i32* %93, align 4
  %95 = load i32, i32* %3, align 4
  %96 = add nsw i32 %95, 1
  %97 = sext i32 %96 to i64
  %98 = getelementptr inbounds [100000 x %struct.stu], [100000 x %struct.stu]* @stu, i64 0, i64 %97
  %99 = getelementptr inbounds %struct.stu, %struct.stu* %98, i32 0, i32 3
  %100 = load i32, i32* %99, align 4
  %101 = icmp slt i32 %94, %100
  br i1 %101, label %102, label %105

102:                                              ; preds = %89
  %103 = load i32, i32* %3, align 4
  %104 = add nsw i32 %103, 1
  store i32 %104, i32* %5, align 4
  br label %105

105:                                              ; preds = %102, %89
  br label %106

106:                                              ; preds = %105
  %107 = load i32, i32* %3, align 4
  %108 = add nsw i32 %107, 1
  store i32 %108, i32* %3, align 4
  br label %85

109:                                              ; preds = %85
  %110 = load i32, i32* %5, align 4
  %111 = sext i32 %110 to i64
  %112 = getelementptr inbounds [100000 x %struct.stu], [100000 x %struct.stu]* @stu, i64 0, i64 %111
  %113 = getelementptr inbounds %struct.stu, %struct.stu* %112, i32 0, i32 0
  %114 = load i32, i32* %113, align 16
  %115 = load i32, i32* %5, align 4
  %116 = sext i32 %115 to i64
  %117 = getelementptr inbounds [100000 x %struct.stu], [100000 x %struct.stu]* @stu, i64 0, i64 %116
  %118 = getelementptr inbounds %struct.stu, %struct.stu* %117, i32 0, i32 3
  %119 = load i32, i32* %118, align 4
  %120 = call i32 (i8*, ...) @printf(i8* getelementptr inbounds ([7 x i8], [7 x i8]* @.str.2, i64 0, i64 0), i32 %114, i32 %119)
  %121 = load i32, i32* %5, align 4
  %122 = sext i32 %121 to i64
  %123 = getelementptr inbounds [100000 x %struct.stu], [100000 x %struct.stu]* @stu, i64 0, i64 %122
  %124 = getelementptr inbounds %struct.stu, %struct.stu* %123, i32 0, i32 3
  store i32 0, i32* %124, align 4
  store i32 1, i32* %6, align 4
  store i32 1, i32* %3, align 4
  br label %125

125:                                              ; preds = %146, %109
  %126 = load i32, i32* %3, align 4
  %127 = load i32, i32* %2, align 4
  %128 = icmp slt i32 %126, %127
  br i1 %128, label %129, label %149

129:                                              ; preds = %125
  %130 = load i32, i32* %6, align 4
  %131 = sext i32 %130 to i64
  %132 = getelementptr inbounds [100000 x %struct.stu], [100000 x %struct.stu]* @stu, i64 0, i64 %131
  %133 = getelementptr inbounds %struct.stu, %struct.stu* %132, i32 0, i32 3
  %134 = load i32, i32* %133, align 4
  %135 = load i32, i32* %3, align 4
  %136 = add nsw i32 %135, 1
  %137 = sext i32 %136 to i64
  %138 = getelementptr inbounds [100000 x %struct.stu], [100000 x %struct.stu]* @stu, i64 0, i64 %137
  %139 = getelementptr inbounds %struct.stu, %struct.stu* %138, i32 0, i32 3
  %140 = load i32, i32* %139, align 4
  %141 = icmp slt i32 %134, %140
  br i1 %141, label %142, label %145

142:                                              ; preds = %129
  %143 = load i32, i32* %3, align 4
  %144 = add nsw i32 %143, 1
  store i32 %144, i32* %6, align 4
  br label %145

145:                                              ; preds = %142, %129
  br label %146

146:                                              ; preds = %145
  %147 = load i32, i32* %3, align 4
  %148 = add nsw i32 %147, 1
  store i32 %148, i32* %3, align 4
  br label %125

149:                                              ; preds = %125
  %150 = load i32, i32* %6, align 4
  %151 = sext i32 %150 to i64
  %152 = getelementptr inbounds [100000 x %struct.stu], [100000 x %struct.stu]* @stu, i64 0, i64 %151
  %153 = getelementptr inbounds %struct.stu, %struct.stu* %152, i32 0, i32 0
  %154 = load i32, i32* %153, align 16
  %155 = load i32, i32* %6, align 4
  %156 = sext i32 %155 to i64
  %157 = getelementptr inbounds [100000 x %struct.stu], [100000 x %struct.stu]* @stu, i64 0, i64 %156
  %158 = getelementptr inbounds %struct.stu, %struct.stu* %157, i32 0, i32 3
  %159 = load i32, i32* %158, align 4
  %160 = call i32 (i8*, ...) @printf(i8* getelementptr inbounds ([7 x i8], [7 x i8]* @.str.2, i64 0, i64 0), i32 %154, i32 %159)
  %161 = call i32 @getchar()
  %162 = call i32 @getchar()
  %163 = load i32, i32* %1, align 4
  ret i32 %163
}

declare dso_local i32 @__isoc99_scanf(i8*, ...) #1

declare dso_local i32 @printf(i8*, ...) #1

declare dso_local i32 @getchar() #1


!llvm.module.flags = !{!0}
!llvm.ident = !{!1}

!0 = !{i32 1, !"wchar_size", i32 4}
!1 = !{!"clang version 10.0.0-4ubuntu1 "}
